target datalayout = "e-m:e-p270:32:32-p271:32:32-p272:64:64-i64:64-i128:128-f80:128-n8:16:32:64-S128"
target triple = "x86_64-pc-linux-gnu"

%struct.lxb_dom_node = type { %struct.lxb_dom_event_target, i64, i64, i64, ptr, ptr, ptr, ptr, ptr, ptr, ptr, i32, i64 }
%struct.lxb_dom_event_target = type { ptr }

; Function Attrs: nounwind uwtable
define hidden ptr @lxb_html_interface_destroy(ptr noundef %0) #0 {
  %2 = alloca ptr, align 8
  %3 = alloca ptr, align 8
  %4 = alloca ptr, align 8
  store ptr %0, ptr %3, align 8
  %5 = load ptr, ptr %3, align 8
  %6 = icmp eq ptr %5, null
  br i1 %6, label %7, label %8

7:                                                ; preds = %1
  store ptr null, ptr %2, align 8
  br label %62

8:                                                ; preds = %1
  %9 = load ptr, ptr %3, align 8
  store ptr %9, ptr %4, align 8
  %10 = load ptr, ptr %4, align 8
  %11 = getelementptr inbounds %struct.lxb_dom_node, ptr %10, i32 0, i32 11
  %12 = load i32, ptr %11, align 8
  switch i32 %12, label %61 [
    i32 3, label %13
    i32 8, label %13
    i32 1, label %13
    i32 9, label %13
    i32 10, label %13
    i32 2, label %49
    i32 4, label %52
    i32 11, label %55
    i32 7, label %58
  ]

13:                                               ; preds = %8, %8, %8, %8, %8
  %14 = load ptr, ptr %4, align 8
  %15 = getelementptr inbounds %struct.lxb_dom_node, ptr %14, i32 0, i32 1
  %16 = load i64, ptr %15, align 8
  %17 = icmp uge i64 %16, 196
  br i1 %17, label %18, label %37

18:                                               ; preds = %13
  %19 = load ptr, ptr %4, align 8
  %20 = getelementptr inbounds %struct.lxb_dom_node, ptr %19, i32 0, i32 3
  %21 = load i64, ptr %20, align 8
  %22 = icmp eq i64 %21, 2
  br i1 %22, label %23, label %26

23:                                               ; preds = %18
  %24 = load ptr, ptr %3, align 8
  %25 = call ptr @lxb_html_unknown_element_interface_destroy(ptr noundef %24)
  store ptr %25, ptr %2, align 8
  br label %62

26:                                               ; preds = %18
  %27 = load ptr, ptr %4, align 8
  %28 = getelementptr inbounds %struct.lxb_dom_node, ptr %27, i32 0, i32 3
  %29 = load i64, ptr %28, align 8
  %30 = icmp eq i64 %29, 4
  br i1 %30, label %31, label %34

31:                                               ; preds = %26
  %32 = load ptr, ptr %3, align 8
  %33 = call ptr @lxb_dom_element_interface_destroy(ptr noundef %32)
  store ptr %33, ptr %2, align 8
  br label %62

34:                                               ; preds = %26
  %35 = load ptr, ptr %3, align 8
  %36 = call ptr @lxb_dom_element_interface_destroy(ptr noundef %35)
  store ptr %36, ptr %2, align 8
  br label %62

37:                                               ; preds = %13
  %38 = load ptr, ptr %4, align 8
  %39 = getelementptr inbounds %struct.lxb_dom_node, ptr %38, i32 0, i32 1
  %40 = load i64, ptr %39, align 8
  %41 = getelementptr inbounds [196 x [8 x ptr]], ptr @lxb_html_interface_res_destructor, i64 0, i64 %40
  %42 = load ptr, ptr %4, align 8
  %43 = getelementptr inbounds %struct.lxb_dom_node, ptr %42, i32 0, i32 3
  %44 = load i64, ptr %43, align 8
  %45 = getelementptr inbounds [8 x ptr], ptr %41, i64 0, i64 %44
  %46 = load ptr, ptr %45, align 8
  %47 = load ptr, ptr %3, align 8
  %48 = call ptr %46(ptr noundef %47)
  store ptr %48, ptr %2, align 8
  br label %62

49:                                               ; preds = %8
  %50 = load ptr, ptr %3, align 8
  %51 = call ptr @lxb_dom_attr_interface_destroy(ptr noundef %50)
  store ptr %51, ptr %2, align 8
  br label %62

52:                                               ; preds = %8
  %53 = load ptr, ptr %3, align 8
  %54 = call ptr @lxb_dom_cdata_section_interface_destroy(ptr noundef %53)
  store ptr %54, ptr %2, align 8
  br label %62

55:                                               ; preds = %8
  %56 = load ptr, ptr %3, align 8
  %57 = call ptr @lxb_dom_document_fragment_interface_destroy(ptr noundef %56)
  store ptr %57, ptr %2, align 8
  br label %62

58:                                               ; preds = %8
  %59 = load ptr, ptr %3, align 8
  %60 = call ptr @lxb_dom_processing_instruction_interface_destroy(ptr noundef %59)
  store ptr %60, ptr %2, align 8
  br label %62

61:                                               ; preds = %8
  store ptr null, ptr %2, align 8
  br label %62

62:                                               ; preds = %61, %58, %55, %52, %49, %37, %34, %31, %23, %7
  %63 = load ptr, ptr %2, align 8
  ret ptr %63
}