; Function Attrs: nounwind uwtable
define hidden ptr @lxb_html_interface_destroy(ptr noundef %0) local_unnamed_addr #0 {
  %2 = icmp eq ptr %0, null
  br i1 %2, label %31, label %3

3:                                                ; preds = %1
  %4 = getelementptr inbounds i8, ptr %0, i64 88
  %5 = load i32, ptr %4, align 8
  switch i32 %5, label %31 [
    i32 3, label %6
    i32 8, label %6
    i32 1, label %6
    i32 9, label %6
    i32 10, label %6
    i32 2, label %23
    i32 4, label %25
    i32 11, label %27
    i32 7, label %29
  ]

6:                                                ; preds = %3, %3, %3, %3, %3
  %7 = getelementptr inbounds i8, ptr %0, i64 8
  %8 = load i64, ptr %7, align 8
  %9 = icmp ugt i64 %8, 195
  %10 = getelementptr inbounds i8, ptr %0, i64 24
  %11 = load i64, ptr %10, align 8
  br i1 %9, label %12, label %19

12:                                               ; preds = %6
  switch i64 %11, label %17 [
    i64 2, label %13
    i64 4, label %15
  ]

13:                                               ; preds = %12
  %14 = tail call ptr @lxb_html_unknown_element_interface_destroy(ptr noundef nonnull %0) #2
  br label %31

15:                                               ; preds = %12
  %16 = tail call ptr @lxb_dom_element_interface_destroy(ptr noundef nonnull %0) #2
  br label %31

17:                                               ; preds = %12
  %18 = tail call ptr @lxb_dom_element_interface_destroy(ptr noundef nonnull %0) #2
  br label %31

19:                                               ; preds = %6
  %20 = getelementptr inbounds [196 x [8 x ptr]], ptr @lxb_html_interface_res_destructor, i64 0, i64 %8, i64 %11
  %21 = load ptr, ptr %20, align 8
  %22 = tail call ptr %21(ptr noundef nonnull %0) #2
  br label %31

23:                                               ; preds = %3
  %24 = tail call ptr @lxb_dom_attr_interface_destroy(ptr noundef nonnull %0) #2
  br label %31

25:                                               ; preds = %3
  %26 = tail call ptr @lxb_dom_cdata_section_interface_destroy(ptr noundef nonnull %0) #2
  br label %31

27:                                               ; preds = %3
  %28 = tail call ptr @lxb_dom_document_fragment_interface_destroy(ptr noundef nonnull %0) #2
  br label %31

29:                                               ; preds = %3
  %30 = tail call ptr @lxb_dom_processing_instruction_interface_destroy(ptr noundef nonnull %0) #2
  br label %31

31:                                               ; preds = %3, %1, %29, %27, %25, %23, %19, %17, %15, %13
  %.0 = phi ptr [ %30, %29 ], [ %28, %27 ], [ %26, %25 ], [ %24, %23 ], [ %14, %13 ], [ %16, %15 ], [ %18, %17 ], [ %22, %19 ], [ null, %1 ], [ null, %3 ]
  ret ptr %.0
}